target datalayout = "e-m:e-p270:32:32-p271:32:32-p272:64:64-i64:64-i128:128-f80:128-n8:16:32:64-S128"
target triple = "x86_64-pc-linux-gnu"

%struct.PJconsts = type { ptr, ptr, ptr, ptr, ptr, ptr, ptr, ptr, ptr, ptr, ptr, ptr, i32, ptr, ptr, ptr, ptr, ptr, ptr, ptr, ptr, double, double, double, double, double, double, double, double, double, double, double, double, double, double, double, double, double, double, double, double, double, double, i32, i32, i32, i32, i32, i32, i32, i32, i32, i32, i32, ptr, ptr, ptr, ptr, ptr, ptr, double, double, double, double, double, double, double, double, double, double, double, i32, [7 x double], i32, ptr, ptr, double, double, i32, [4 x i8], %"class.std::shared_ptr", i8, double, i8, %"class.std::__cxx11::basic_string", %"class.std::__cxx11::basic_string", %"class.std::__cxx11::basic_string", i8, %"class.std::vector", i32, %"class.std::vector.3", i32, i8, i8, i8, ptr }
%"class.std::shared_ptr" = type { %"class.std::__shared_ptr" }
%"class.std::__shared_ptr" = type { ptr, %"class.std::__shared_count" }
%"class.std::__shared_count" = type { ptr }
%"class.std::__cxx11::basic_string" = type { %"struct.std::__cxx11::basic_string<char>::_Alloc_hider", i64, %union.anon }
%"struct.std::__cxx11::basic_string<char>::_Alloc_hider" = type { ptr }
%union.anon = type { i64, [8 x i8] }
%"class.std::vector" = type { %"struct.std::_Vector_base" }
%"struct.std::_Vector_base" = type { %"struct.std::_Vector_base<osgeo::proj::operation::GridDescription, std::allocator<osgeo::proj::operation::GridDescription>>::_Vector_impl" }
%"struct.std::_Vector_base<osgeo::proj::operation::GridDescription, std::allocator<osgeo::proj::operation::GridDescription>>::_Vector_impl" = type { %"struct.std::_Vector_base<osgeo::proj::operation::GridDescription, std::allocator<osgeo::proj::operation::GridDescription>>::_Vector_impl_data" }
%"struct.std::_Vector_base<osgeo::proj::operation::GridDescription, std::allocator<osgeo::proj::operation::GridDescription>>::_Vector_impl_data" = type { ptr, ptr, ptr }
%"class.std::vector.3" = type { %"struct.std::_Vector_base.4" }
%"struct.std::_Vector_base.4" = type { %"struct.std::_Vector_base<PJCoordOperation, std::allocator<PJCoordOperation>>::_Vector_impl" }
%"struct.std::_Vector_base<PJCoordOperation, std::allocator<PJCoordOperation>>::_Vector_impl" = type { %"struct.std::_Vector_base<PJCoordOperation, std::allocator<PJCoordOperation>>::_Vector_impl_data" }
%"struct.std::_Vector_base<PJCoordOperation, std::allocator<PJCoordOperation>>::_Vector_impl_data" = type { ptr, ptr, ptr }
%"struct.(anonymous namespace)::tmerc_data" = type { %"struct.(anonymous namespace)::EvendenSnyder", %"struct.(anonymous namespace)::PoderEngsager" }
%"struct.(anonymous namespace)::EvendenSnyder" = type { double, double, ptr }
%"struct.(anonymous namespace)::PoderEngsager" = type { double, double, [6 x double], [6 x double], [6 x double], [6 x double] }
%struct.PJ_LP = type { double, double }
%struct.PJ_XY = type { double, double }

; Function Attrs: mustprogress uwtable
define internal { double, double } @_ZL12approx_e_fwd5PJ_LPP8PJconsts(double %0, double %1, ptr noundef %2) #0 {
  %4 = alloca %struct.PJ_XY, align 8
  %5 = alloca %struct.PJ_LP, align 8
  %6 = alloca ptr, align 8
  %7 = alloca ptr, align 8
  %8 = alloca double, align 8
  %9 = alloca double, align 8
  %10 = alloca double, align 8
  %11 = alloca double, align 8
  %12 = alloca double, align 8
  %13 = alloca double, align 8
  %14 = alloca i32, align 4
  %15 = getelementptr inbounds nuw { double, double }, ptr %5, i32 0, i32 0
  store double %0, ptr %15, align 8
  %16 = getelementptr inbounds nuw { double, double }, ptr %5, i32 0, i32 1
  store double %1, ptr %16, align 8
  store ptr %2, ptr %6, align 8, !tbaa !3
  call void @llvm.memset.p0.i64(ptr align 8 %4, i8 0, i64 16, i1 false)
  call void @llvm.lifetime.start.p0(i64 8, ptr %7) #11
  %17 = load ptr, ptr %6, align 8, !tbaa !3
  %18 = getelementptr inbounds nuw %struct.PJconsts, ptr %17, i32 0, i32 11
  %19 = load ptr, ptr %18, align 8, !tbaa !76
  %20 = getelementptr inbounds nuw %"struct.(anonymous namespace)::tmerc_data", ptr %19, i32 0, i32 0
  store ptr %20, ptr %7, align 8, !tbaa !90
  call void @llvm.lifetime.start.p0(i64 8, ptr %8) #11
  call void @llvm.lifetime.start.p0(i64 8, ptr %9) #11
  call void @llvm.lifetime.start.p0(i64 8, ptr %10) #11
  call void @llvm.lifetime.start.p0(i64 8, ptr %11) #11
  call void @llvm.lifetime.start.p0(i64 8, ptr %12) #11
  call void @llvm.lifetime.start.p0(i64 8, ptr %13) #11
  %21 = getelementptr inbounds nuw %struct.PJ_LP, ptr %5, i32 0, i32 0
  %22 = load double, ptr %21, align 8, !tbaa !103
  %23 = fcmp olt double %22, 0xBFF921FB54442D18
  br i1 %23, label %28, label %24

24:                                               ; preds = %3
  %25 = getelementptr inbounds nuw %struct.PJ_LP, ptr %5, i32 0, i32 0
  %26 = load double, ptr %25, align 8, !tbaa !103
  %27 = fcmp ogt double %26, 0x3FF921FB54442D18
  br i1 %27, label %28, label %34

28:                                               ; preds = %24, %3
  %29 = getelementptr inbounds nuw %struct.PJ_XY, ptr %4, i32 0, i32 0
  store double 0x7FF0000000000000, ptr %29, align 8, !tbaa !96
  %30 = getelementptr inbounds nuw %struct.PJ_XY, ptr %4, i32 0, i32 1
  store double 0x7FF0000000000000, ptr %30, align 8, !tbaa !100
  %31 = load ptr, ptr %6, align 8, !tbaa !3
  %32 = getelementptr inbounds nuw %struct.PJconsts, ptr %31, i32 0, i32 0
  %33 = load ptr, ptr %32, align 8, !tbaa !44
  call void @_Z22proj_context_errno_setP6pj_ctxi(ptr noundef %33, i32 noundef 2050)
  store i32 1, ptr %14, align 4
  br label %167

34:                                               ; preds = %24
  %35 = getelementptr inbounds nuw %struct.PJ_LP, ptr %5, i32 0, i32 1
  %36 = load double, ptr %35, align 8, !tbaa !101
  %37 = call double @sin(double noundef %36) #11, !tbaa !84
  store double %37, ptr %12, align 8, !tbaa !98
  %38 = getelementptr inbounds nuw %struct.PJ_LP, ptr %5, i32 0, i32 1
  %39 = load double, ptr %38, align 8, !tbaa !101
  %40 = call double @cos(double noundef %39) #11, !tbaa !84
  store double %40, ptr %11, align 8, !tbaa !98
  %41 = load double, ptr %11, align 8, !tbaa !98
  %42 = call double @llvm.fabs.f64(double %41)
  %43 = fcmp ogt double %42, 1.000000e-10
  br i1 %43, label %44, label %48

44:                                               ; preds = %34
  %45 = load double, ptr %12, align 8, !tbaa !98
  %46 = load double, ptr %11, align 8, !tbaa !98
  %47 = fdiv double %45, %46
  br label %49

48:                                               ; preds = %34
  br label %49

49:                                               ; preds = %48, %44
  %50 = phi double [ %47, %44 ], [ 0.000000e+00, %48 ]
  store double %50, ptr %13, align 8, !tbaa !98
  %51 = load double, ptr %13, align 8, !tbaa !98
  %52 = load double, ptr %13, align 8, !tbaa !98
  %53 = fmul double %52, %51
  store double %53, ptr %13, align 8, !tbaa !98
  %54 = load double, ptr %11, align 8, !tbaa !98
  %55 = getelementptr inbounds nuw %struct.PJ_LP, ptr %5, i32 0, i32 0
  %56 = load double, ptr %55, align 8, !tbaa !103
  %57 = fmul double %54, %56
  store double %57, ptr %8, align 8, !tbaa !98
  %58 = load double, ptr %8, align 8, !tbaa !98
  %59 = load double, ptr %8, align 8, !tbaa !98
  %60 = fmul double %58, %59
  store double %60, ptr %9, align 8, !tbaa !98
  %61 = load ptr, ptr %6, align 8, !tbaa !3
  %62 = getelementptr inbounds nuw %struct.PJconsts, ptr %61, i32 0, i32 27
  %63 = load double, ptr %62, align 8, !tbaa !71
  %64 = load double, ptr %12, align 8, !tbaa !98
  %65 = fmul double %63, %64
  %66 = load double, ptr %12, align 8, !tbaa !98
  %67 = fneg double %65
  %68 = call double @llvm.fmuladd.f64(double %67, double %66, double 1.000000e+00)
  %69 = call double @sqrt(double noundef %68) #11, !tbaa !84
  %70 = load double, ptr %8, align 8, !tbaa !98
  %71 = fdiv double %70, %69
  store double %71, ptr %8, align 8, !tbaa !98
  %72 = load ptr, ptr %7, align 8, !tbaa !90
  %73 = getelementptr inbounds nuw %"struct.(anonymous namespace)::EvendenSnyder", ptr %72, i32 0, i32 0
  %74 = load double, ptr %73, align 8, !tbaa !95
  %75 = load double, ptr %11, align 8, !tbaa !98
  %76 = fmul double %74, %75
  %77 = load double, ptr %11, align 8, !tbaa !98
  %78 = fmul double %76, %77
  store double %78, ptr %10, align 8, !tbaa !98
  %79 = load ptr, ptr %6, align 8, !tbaa !3
  %80 = getelementptr inbounds nuw %struct.PJconsts, ptr %79, i32 0, i32 66
  %81 = load double, ptr %80, align 8, !tbaa !73
  %82 = load double, ptr %8, align 8, !tbaa !98
  %83 = fmul double %81, %82
  %84 = load double, ptr %9, align 8, !tbaa !98
  %85 = fmul double 0x3FC5555555555555, %84
  %86 = load double, ptr %13, align 8, !tbaa !98
  %87 = fsub double 1.000000e+00, %86
  %88 = load double, ptr %10, align 8, !tbaa !98
  %89 = fadd double %87, %88
  %90 = load double, ptr %9, align 8, !tbaa !98
  %91 = fmul double 5.000000e-02, %90
  %92 = load double, ptr %13, align 8, !tbaa !98
  %93 = load double, ptr %13, align 8, !tbaa !98
  %94 = fsub double %93, 1.800000e+01
  %95 = call double @llvm.fmuladd.f64(double %92, double %94, double 5.000000e+00)
  %96 = load double, ptr %10, align 8, !tbaa !98
  %97 = load double, ptr %13, align 8, !tbaa !98
  %98 = call double @llvm.fmuladd.f64(double -5.800000e+01, double %97, double 1.400000e+01)
  %99 = call double @llvm.fmuladd.f64(double %96, double %98, double %95)
  %100 = load double, ptr %9, align 8, !tbaa !98
  %101 = fmul double 0x3F98618618618618, %100
  %102 = load double, ptr %13, align 8, !tbaa !98
  %103 = load double, ptr %13, align 8, !tbaa !98
  %104 = load double, ptr %13, align 8, !tbaa !98
  %105 = fsub double 1.790000e+02, %104
  %106 = call double @llvm.fmuladd.f64(double %103, double %105, double -4.790000e+02)
  %107 = call double @llvm.fmuladd.f64(double %102, double %106, double 6.100000e+01)
  %108 = call double @llvm.fmuladd.f64(double %101, double %107, double %99)
  %109 = call double @llvm.fmuladd.f64(double %91, double %108, double %89)
  %110 = call double @llvm.fmuladd.f64(double %85, double %109, double 1.000000e+00)
  %111 = fmul double %83, %110
  %112 = getelementptr inbounds nuw %struct.PJ_XY, ptr %4, i32 0, i32 0
  store double %111, ptr %112, align 8, !tbaa !96
  %113 = load ptr, ptr %6, align 8, !tbaa !3
  %114 = getelementptr inbounds nuw %struct.PJconsts, ptr %113, i32 0, i32 66
  %115 = load double, ptr %114, align 8, !tbaa !73
  %116 = getelementptr inbounds nuw %struct.PJ_LP, ptr %5, i32 0, i32 1
  %117 = load double, ptr %116, align 8, !tbaa !101
  %118 = load double, ptr %12, align 8, !tbaa !98
  %119 = load double, ptr %11, align 8, !tbaa !98
  %120 = load ptr, ptr %7, align 8, !tbaa !90
  %121 = getelementptr inbounds nuw %"struct.(anonymous namespace)::EvendenSnyder", ptr %120, i32 0, i32 2
  %122 = load ptr, ptr %121, align 8, !tbaa !93
  %123 = call noundef double @_Z7pj_mlfndddPKd(double noundef %117, double noundef %118, double noundef %119, ptr noundef %122)
  %124 = load ptr, ptr %7, align 8, !tbaa !90
  %125 = getelementptr inbounds nuw %"struct.(anonymous namespace)::EvendenSnyder", ptr %124, i32 0, i32 1
  %126 = load double, ptr %125, align 8, !tbaa !94
  %127 = fsub double %123, %126
  %128 = load double, ptr %12, align 8, !tbaa !98
  %129 = load double, ptr %8, align 8, !tbaa !98
  %130 = fmul double %128, %129
  %131 = getelementptr inbounds nuw %struct.PJ_LP, ptr %5, i32 0, i32 0
  %132 = load double, ptr %131, align 8, !tbaa !103
  %133 = fmul double %130, %132
  %134 = fmul double %133, 5.000000e-01
  %135 = load double, ptr %9, align 8, !tbaa !98
  %136 = fmul double 0x3FB5555555555555, %135
  %137 = load double, ptr %13, align 8, !tbaa !98
  %138 = fsub double 5.000000e+00, %137
  %139 = load double, ptr %10, align 8, !tbaa !98
  %140 = load double, ptr %10, align 8, !tbaa !98
  %141 = call double @llvm.fmuladd.f64(double 4.000000e+00, double %140, double 9.000000e+00)
  %142 = call double @llvm.fmuladd.f64(double %139, double %141, double %138)
  %143 = load double, ptr %9, align 8, !tbaa !98
  %144 = fmul double 0x3FA1111111111111, %143
  %145 = load double, ptr %13, align 8, !tbaa !98
  %146 = load double, ptr %13, align 8, !tbaa !98
  %147 = fsub double %146, 5.800000e+01
  %148 = call double @llvm.fmuladd.f64(double %145, double %147, double 6.100000e+01)
  %149 = load double, ptr %10, align 8, !tbaa !98
  %150 = load double, ptr %13, align 8, !tbaa !98
  %151 = call double @llvm.fmuladd.f64(double -3.300000e+02, double %150, double 2.700000e+02)
  %152 = call double @llvm.fmuladd.f64(double %149, double %151, double %148)
  %153 = load double, ptr %9, align 8, !tbaa !98
  %154 = fmul double 0x3F92492492492492, %153
  %155 = load double, ptr %13, align 8, !tbaa !98
  %156 = load double, ptr %13, align 8, !tbaa !98
  %157 = load double, ptr %13, align 8, !tbaa !98
  %158 = fsub double 5.430000e+02, %157
  %159 = call double @llvm.fmuladd.f64(double %156, double %158, double -3.111000e+03)
  %160 = call double @llvm.fmuladd.f64(double %155, double %159, double 1.385000e+03)
  %161 = call double @llvm.fmuladd.f64(double %154, double %160, double %152)
  %162 = call double @llvm.fmuladd.f64(double %144, double %161, double %142)
  %163 = call double @llvm.fmuladd.f64(double %136, double %162, double 1.000000e+00)
  %164 = call double @llvm.fmuladd.f64(double %134, double %163, double %127)
  %165 = fmul double %115, %164
  %166 = getelementptr inbounds nuw %struct.PJ_XY, ptr %4, i32 0, i32 1
  store double %165, ptr %166, align 8, !tbaa !100
  store i32 1, ptr %14, align 4
  br label %167

167:                                              ; preds = %49, %28
  call void @llvm.lifetime.end.p0(i64 8, ptr %13) #11
  call void @llvm.lifetime.end.p0(i64 8, ptr %12) #11
  call void @llvm.lifetime.end.p0(i64 8, ptr %11) #11
  call void @llvm.lifetime.end.p0(i64 8, ptr %10) #11
  call void @llvm.lifetime.end.p0(i64 8, ptr %9) #11
  call void @llvm.lifetime.end.p0(i64 8, ptr %8) #11
  call void @llvm.lifetime.end.p0(i64 8, ptr %7) #11
  %168 = load { double, double }, ptr %4, align 8
  ret { double, double } %168
}