; Function Attrs: mustprogress uwtable
define internal { double, double } @_ZL12approx_e_fwd5PJ_LPP8PJconsts(double %0, double %1, ptr noundef readonly captures(none) %2) #0 {
  %4 = tail call double @llvm.fabs.f64(double %0)
  %or.cond = fcmp ogt double %4, 0x3FF921FB54442D18
  br i1 %or.cond, label %5, label %7

5:                                                ; preds = %3
  %6 = load ptr, ptr %2, align 8, !tbaa !42
  tail call void @_Z22proj_context_errno_setP6pj_ctxi(ptr noundef %6, i32 noundef 2050)
  br label %75

7:                                                ; preds = %3
  %8 = getelementptr inbounds nuw i8, ptr %2, i64 88
  %9 = load ptr, ptr %8, align 8, !tbaa !70
  %10 = tail call double @sin(double noundef %1) #11, !tbaa !76
  %11 = tail call double @cos(double noundef %1) #11, !tbaa !76
  %12 = tail call double @llvm.fabs.f64(double %11)
  %13 = fcmp ogt double %12, 1.000000e-10
  %14 = fdiv double %10, %11
  %15 = select i1 %13, double %14, double 0.000000e+00
  %16 = fmul double %15, %15
  %17 = fmul double %0, %11
  %18 = fmul double %17, %17
  %19 = getelementptr inbounds nuw i8, ptr %2, i64 216
  %20 = load double, ptr %19, align 8, !tbaa !67
  %21 = fneg double %10
  %22 = fmul double %20, %21
  %23 = tail call double @llvm.fmuladd.f64(double %22, double %10, double 1.000000e+00)
  %24 = tail call double @sqrt(double noundef %23) #11, !tbaa !76
  %25 = fdiv double %17, %24
  %26 = load double, ptr %9, align 8, !tbaa !78
  %27 = fmul double %11, %26
  %28 = fmul double %11, %27
  %29 = getelementptr inbounds nuw i8, ptr %2, i64 488
  %30 = load double, ptr %29, align 8, !tbaa !69
  %31 = fmul double %25, %30
  %32 = fmul double %18, 0x3FC5555555555555
  %33 = fsub double 1.000000e+00, %16
  %34 = fadd double %33, %28
  %35 = fmul double %18, 5.000000e-02
  %36 = fadd double %16, -1.800000e+01
  %37 = tail call double @llvm.fmuladd.f64(double %16, double %36, double 5.000000e+00)
  %38 = tail call double @llvm.fmuladd.f64(double %16, double -5.800000e+01, double 1.400000e+01)
  %39 = tail call double @llvm.fmuladd.f64(double %28, double %38, double %37)
  %40 = fmul double %18, 0x3F98618618618618
  %41 = fsub double 1.790000e+02, %16
  %42 = tail call double @llvm.fmuladd.f64(double %16, double %41, double -4.790000e+02)
  %43 = tail call double @llvm.fmuladd.f64(double %16, double %42, double 6.100000e+01)
  %44 = tail call double @llvm.fmuladd.f64(double %40, double %43, double %39)
  %45 = tail call double @llvm.fmuladd.f64(double %35, double %44, double %34)
  %46 = tail call double @llvm.fmuladd.f64(double %32, double %45, double 1.000000e+00)
  %47 = fmul double %31, %46
  %48 = getelementptr inbounds nuw i8, ptr %9, i64 16
  %49 = load ptr, ptr %48, align 8, !tbaa !73
  %50 = tail call noundef double @_Z7pj_mlfndddPKd(double noundef %1, double noundef %10, double noundef %11, ptr noundef %49)
  %51 = getelementptr inbounds nuw i8, ptr %9, i64 8
  %52 = load double, ptr %51, align 8, !tbaa !77
  %53 = fsub double %50, %52
  %54 = fmul double %10, %25
  %55 = fmul double %0, %54
  %56 = fmul double %55, 5.000000e-01
  %57 = fmul double %18, 0x3FB5555555555555
  %58 = fsub double 5.000000e+00, %16
  %59 = tail call double @llvm.fmuladd.f64(double %28, double 4.000000e+00, double 9.000000e+00)
  %60 = tail call double @llvm.fmuladd.f64(double %28, double %59, double %58)
  %61 = fmul double %18, 0x3FA1111111111111
  %62 = fadd double %16, -5.800000e+01
  %63 = tail call double @llvm.fmuladd.f64(double %16, double %62, double 6.100000e+01)
  %64 = tail call double @llvm.fmuladd.f64(double %16, double -3.300000e+02, double 2.700000e+02)
  %65 = tail call double @llvm.fmuladd.f64(double %28, double %64, double %63)
  %66 = fmul double %18, 0x3F92492492492492
  %67 = fsub double 5.430000e+02, %16
  %68 = tail call double @llvm.fmuladd.f64(double %16, double %67, double -3.111000e+03)
  %69 = tail call double @llvm.fmuladd.f64(double %16, double %68, double 1.385000e+03)
  %70 = tail call double @llvm.fmuladd.f64(double %66, double %69, double %65)
  %71 = tail call double @llvm.fmuladd.f64(double %61, double %70, double %60)
  %72 = tail call double @llvm.fmuladd.f64(double %57, double %71, double 1.000000e+00)
  %73 = tail call double @llvm.fmuladd.f64(double %56, double %72, double %53)
  %74 = fmul double %30, %73
  br label %75

75:                                               ; preds = %7, %5
  %.sroa.4.0 = phi double [ 0x7FF0000000000000, %5 ], [ %74, %7 ]
  %.sroa.058.0 = phi double [ 0x7FF0000000000000, %5 ], [ %47, %7 ]
  %.fca.0.insert = insertvalue { double, double } poison, double %.sroa.058.0, 0
  %.fca.1.insert = insertvalue { double, double } %.fca.0.insert, double %.sroa.4.0, 1
  ret { double, double } %.fca.1.insert
}